; Function Attrs: mustprogress uwtable
define hidden void @_ZN7nanogui6Screen6redrawEv(ptr nocapture noundef nonnull align 8 dereferenceable(384) %0) local_unnamed_addr #3 align 2 {
  %2 = getelementptr inbounds i8, ptr %0, i64 349
  %3 = load i8, ptr %2, align 1
  %4 = and i8 %3, 1
  %.not = icmp eq i8 %4, 0
  br i1 %.not, label %5, label %6

5:                                                ; preds = %1
  store i8 1, ptr %2, align 1
  tail call void @glfwPostEmptyEvent()
  br label %6

6:                                                ; preds = %5, %1
  ret void
}